target datalayout = "e-m:e-p270:32:32-p271:32:32-p272:64:64-i64:64-i128:128-f80:128-n8:16:32:64-S128"
target triple = "x86_64-pc-linux-gnu"

%struct.TupleTableSlotOps = type { i64, ptr, ptr, ptr, ptr, ptr, ptr, ptr, ptr, ptr, ptr, ptr, ptr }
%struct.SortState = type { %struct.ScanState, i8, i8, i64, i8, i8, i64, ptr, i8, i8, ptr }
%struct.ScanState = type { %struct.PlanState, ptr, ptr, ptr }
%struct.PlanState = type { i32, ptr, ptr, ptr, ptr, ptr, ptr, ptr, ptr, ptr, ptr, ptr, ptr, ptr, ptr, ptr, ptr, ptr, i8, ptr, ptr, ptr, ptr, ptr, i8, i8, i8, i8, i8, i8, i8, i8 }
%struct.Plan = type { i32, i32, double, double, double, i32, i8, i8, i8, i32, ptr, ptr, ptr, ptr, ptr, ptr, ptr }
%struct.TupleDescData = type { i32, i32, i32, i32, ptr, [0 x %struct.CompactAttribute] }
%struct.CompactAttribute = type { i32, i16, i8, i8, i8, i8, i8, i8, i8 }
%struct.Node = type { i32 }

@TTSOpsVirtual = external constant %struct.TupleTableSlotOps, align 8
@TTSOpsMinimalTuple = external constant %struct.TupleTableSlotOps, align 8

; Function Attrs: inlinehint nounwind uwtable
define internal ptr @newNode(i64 noundef %0, i32 noundef %1) #2 {
  %3 = alloca i64, align 8
  %4 = alloca i32, align 4
  %5 = alloca ptr, align 8
  store i64 %0, ptr %3, align 8
  store i32 %1, ptr %4, align 4
  call void @llvm.lifetime.start.p0(i64 8, ptr %5) #7
  %6 = load i64, ptr %3, align 8
  %7 = call ptr @palloc0(i64 noundef %6)
  store ptr %7, ptr %5, align 8
  %8 = load i32, ptr %4, align 4
  %9 = load ptr, ptr %5, align 8
  %10 = getelementptr inbounds nuw %struct.Node, ptr %9, i32 0, i32 0
  store i32 %8, ptr %10, align 4
  %11 = load ptr, ptr %5, align 8
  call void @llvm.lifetime.end.p0(i64 8, ptr %5) #7
  ret ptr %11
}

; Function Attrs: nounwind uwtable
define dso_local ptr @ExecInitSort(ptr noundef %0, ptr noundef %1, i32 noundef %2) #0 {
  %4 = alloca ptr, align 8
  %5 = alloca ptr, align 8
  %6 = alloca i32, align 4
  %7 = alloca ptr, align 8
  %8 = alloca ptr, align 8
  store ptr %0, ptr %4, align 8
  store ptr %1, ptr %5, align 8
  store i32 %2, ptr %6, align 4
  call void @llvm.lifetime.start.p0(i64 8, ptr %7) #7
  call void @llvm.lifetime.start.p0(i64 8, ptr %8) #7
  %9 = call ptr @newNode(i64 noundef 280, i32 noundef 425)
  store ptr %9, ptr %7, align 8
  %10 = load ptr, ptr %4, align 8
  %11 = load ptr, ptr %7, align 8
  %12 = getelementptr inbounds nuw %struct.SortState, ptr %11, i32 0, i32 0
  %13 = getelementptr inbounds nuw %struct.ScanState, ptr %12, i32 0, i32 0
  %14 = getelementptr inbounds nuw %struct.PlanState, ptr %13, i32 0, i32 1
  store ptr %10, ptr %14, align 8
  %15 = load ptr, ptr %5, align 8
  %16 = load ptr, ptr %7, align 8
  %17 = getelementptr inbounds nuw %struct.SortState, ptr %16, i32 0, i32 0
  %18 = getelementptr inbounds nuw %struct.ScanState, ptr %17, i32 0, i32 0
  %19 = getelementptr inbounds nuw %struct.PlanState, ptr %18, i32 0, i32 2
  store ptr %15, ptr %19, align 8
  %20 = load ptr, ptr %7, align 8
  %21 = getelementptr inbounds nuw %struct.SortState, ptr %20, i32 0, i32 0
  %22 = getelementptr inbounds nuw %struct.ScanState, ptr %21, i32 0, i32 0
  %23 = getelementptr inbounds nuw %struct.PlanState, ptr %22, i32 0, i32 3
  store ptr @ExecSort, ptr %23, align 8
  %24 = load i32, ptr %6, align 4
  %25 = and i32 %24, 28
  %26 = icmp ne i32 %25, 0
  %27 = load ptr, ptr %7, align 8
  %28 = getelementptr inbounds nuw %struct.SortState, ptr %27, i32 0, i32 1
  %29 = zext i1 %26 to i8
  store i8 %29, ptr %28, align 8
  %30 = load ptr, ptr %7, align 8
  %31 = getelementptr inbounds nuw %struct.SortState, ptr %30, i32 0, i32 2
  store i8 0, ptr %31, align 1
  %32 = load ptr, ptr %7, align 8
  %33 = getelementptr inbounds nuw %struct.SortState, ptr %32, i32 0, i32 4
  store i8 0, ptr %33, align 8
  %34 = load ptr, ptr %7, align 8
  %35 = getelementptr inbounds nuw %struct.SortState, ptr %34, i32 0, i32 7
  store ptr null, ptr %35, align 8
  %36 = load i32, ptr %6, align 4
  %37 = and i32 %36, -29
  store i32 %37, ptr %6, align 4
  %38 = load ptr, ptr %4, align 8
  %39 = getelementptr inbounds nuw %struct.Plan, ptr %38, i32 0, i32 12
  %40 = load ptr, ptr %39, align 8
  %41 = load ptr, ptr %5, align 8
  %42 = load i32, ptr %6, align 4
  %43 = call ptr @ExecInitNode(ptr noundef %40, ptr noundef %41, i32 noundef %42)
  %44 = load ptr, ptr %7, align 8
  %45 = getelementptr inbounds nuw %struct.PlanState, ptr %44, i32 0, i32 9
  store ptr %43, ptr %45, align 8
  %46 = load ptr, ptr %5, align 8
  %47 = load ptr, ptr %7, align 8
  %48 = getelementptr inbounds nuw %struct.SortState, ptr %47, i32 0, i32 0
  call void @ExecCreateScanSlotFromOuterPlan(ptr noundef %46, ptr noundef %48, ptr noundef @TTSOpsVirtual)
  %49 = load ptr, ptr %7, align 8
  %50 = getelementptr inbounds nuw %struct.SortState, ptr %49, i32 0, i32 0
  %51 = getelementptr inbounds nuw %struct.ScanState, ptr %50, i32 0, i32 0
  call void @ExecInitResultTupleSlotTL(ptr noundef %51, ptr noundef @TTSOpsMinimalTuple)
  %52 = load ptr, ptr %7, align 8
  %53 = getelementptr inbounds nuw %struct.SortState, ptr %52, i32 0, i32 0
  %54 = getelementptr inbounds nuw %struct.ScanState, ptr %53, i32 0, i32 0
  %55 = getelementptr inbounds nuw %struct.PlanState, ptr %54, i32 0, i32 17
  store ptr null, ptr %55, align 8
  %56 = load ptr, ptr %7, align 8
  %57 = getelementptr inbounds nuw %struct.PlanState, ptr %56, i32 0, i32 9
  %58 = load ptr, ptr %57, align 8
  %59 = call ptr @ExecGetResultType(ptr noundef %58)
  store ptr %59, ptr %8, align 8
  %60 = load ptr, ptr %8, align 8
  %61 = getelementptr inbounds nuw %struct.TupleDescData, ptr %60, i32 0, i32 0
  %62 = load i32, ptr %61, align 8
  %63 = icmp eq i32 %62, 1
  br i1 %63, label %64, label %67

64:                                               ; preds = %3
  %65 = load ptr, ptr %7, align 8
  %66 = getelementptr inbounds nuw %struct.SortState, ptr %65, i32 0, i32 9
  store i8 1, ptr %66, align 1
  br label %70

67:                                               ; preds = %3
  %68 = load ptr, ptr %7, align 8
  %69 = getelementptr inbounds nuw %struct.SortState, ptr %68, i32 0, i32 9
  store i8 0, ptr %69, align 1
  br label %70

70:                                               ; preds = %67, %64
  %71 = load ptr, ptr %7, align 8
  call void @llvm.lifetime.end.p0(i64 8, ptr %8) #7
  call void @llvm.lifetime.end.p0(i64 8, ptr %7) #7
  ret ptr %71
}