; Function Attrs: nounwind uwtable
define dso_local noundef ptr @ExecInitSort(ptr noundef %0, ptr noundef %1, i32 noundef %2) local_unnamed_addr #0 {
  %4 = tail call noundef ptr @palloc0(i64 noundef 280) #4
  store i32 425, ptr %4, align 4
  %5 = getelementptr inbounds nuw i8, ptr %4, i64 8
  store ptr %0, ptr %5, align 8
  %6 = getelementptr inbounds nuw i8, ptr %4, i64 16
  store ptr %1, ptr %6, align 8
  %7 = getelementptr inbounds nuw i8, ptr %4, i64 24
  store ptr @ExecSort, ptr %7, align 8
  %8 = and i32 %2, 28
  %9 = icmp ne i32 %8, 0
  %10 = getelementptr inbounds nuw i8, ptr %4, i64 224
  %11 = zext i1 %9 to i8
  store i8 %11, ptr %10, align 8
  %12 = getelementptr inbounds nuw i8, ptr %4, i64 225
  store i8 0, ptr %12, align 1
  %13 = getelementptr inbounds nuw i8, ptr %4, i64 240
  store i8 0, ptr %13, align 8
  %14 = getelementptr inbounds nuw i8, ptr %4, i64 256
  store ptr null, ptr %14, align 8
  %15 = and i32 %2, -29
  %16 = getelementptr inbounds nuw i8, ptr %0, i64 64
  %17 = load ptr, ptr %16, align 8
  %18 = tail call ptr @ExecInitNode(ptr noundef %17, ptr noundef %1, i32 noundef %15) #4
  %19 = getelementptr inbounds nuw i8, ptr %4, i64 72
  store ptr %18, ptr %19, align 8
  tail call void @ExecCreateScanSlotFromOuterPlan(ptr noundef %1, ptr noundef nonnull %4, ptr noundef nonnull @TTSOpsVirtual) #4
  tail call void @ExecInitResultTupleSlotTL(ptr noundef nonnull %4, ptr noundef nonnull @TTSOpsMinimalTuple) #4
  %20 = getelementptr inbounds nuw i8, ptr %4, i64 136
  store ptr null, ptr %20, align 8
  %21 = load ptr, ptr %19, align 8
  %22 = tail call ptr @ExecGetResultType(ptr noundef %21) #4
  %23 = load i32, ptr %22, align 8
  %24 = icmp eq i32 %23, 1
  %spec.select = zext i1 %24 to i8
  %25 = getelementptr inbounds nuw i8, ptr %4, i64 265
  store i8 %spec.select, ptr %25, align 1
  ret ptr %4
}